target datalayout = "e-m:e-p270:32:32-p271:32:32-p272:64:64-i64:64-i128:128-f80:128-n8:16:32:64-S128"
target triple = "x86_64-pc-linux-gnu"

%struct.epan_dissect = type { ptr, ptr, ptr, %struct._packet_info }
%struct._packet_info = type { ptr, ptr, i32, i32, %struct.nstime_t, %struct.nstime_t, %struct.nstime_t, i8, ptr, ptr, ptr, ptr, %struct._address, %struct._address, %struct._address, %struct._address, %struct._address, %struct._address, i32, ptr, i8, [3 x i8], %struct.anon, i32, i32, i32, i32, ptr, i8, ptr, ptr, i16, i16, i32, i32, i16, i32, i32, ptr, ptr, ptr, i8, i8, i16, i16, i16, i32, i16, i16, ptr, ptr, ptr, ptr, ptr, i32, i32 }
%struct.nstime_t = type { i64, i32 }
%struct._address = type { i32, i32, ptr, ptr }
%struct.anon = type { i8, [3 x i8] }
%struct.epan_column_info = type { ptr, i32, ptr, ptr, ptr, %struct.col_expr_t, i8, ptr }
%struct.col_expr_t = type { ptr, ptr }

@.str.28 = private unnamed_addr constant [2 x i8] c"\0A\00", align 1

; Function Attrs: null_pointer_is_valid sspstrong uwtable
define void @write_csv_columns(ptr noundef %0, ptr noundef %1) #0 {
  %3 = alloca ptr, align 8
  %4 = alloca ptr, align 8
  %5 = alloca i32, align 4
  %6 = alloca i8, align 1
  store ptr %0, ptr %3, align 8
  store ptr %1, ptr %4, align 8
  call void @llvm.lifetime.start.p0(i64 4, ptr %5) #15
  call void @llvm.lifetime.start.p0(i64 1, ptr %6) #15
  store i8 0, ptr %6, align 1
  store i32 0, ptr %5, align 4
  br label %7

7:                                                ; preds = %30, %2
  %8 = load i32, ptr %5, align 4
  %9 = load ptr, ptr %3, align 8
  %10 = getelementptr inbounds nuw %struct.epan_dissect, ptr %9, i32 0, i32 3
  %11 = getelementptr inbounds nuw %struct._packet_info, ptr %10, i32 0, i32 1
  %12 = load ptr, ptr %11, align 8
  %13 = getelementptr inbounds nuw %struct.epan_column_info, ptr %12, i32 0, i32 1
  %14 = load i32, ptr %13, align 8
  %15 = icmp slt i32 %8, %14
  br i1 %15, label %16, label %33

16:                                               ; preds = %7
  %17 = load i32, ptr %5, align 4
  %18 = call zeroext i1 @get_column_visible(i32 noundef %17)
  br i1 %18, label %20, label %19

19:                                               ; preds = %16
  br label %30

20:                                               ; preds = %16
  %21 = load ptr, ptr %3, align 8
  %22 = getelementptr inbounds nuw %struct.epan_dissect, ptr %21, i32 0, i32 3
  %23 = getelementptr inbounds nuw %struct._packet_info, ptr %22, i32 0, i32 1
  %24 = load ptr, ptr %23, align 8
  %25 = load i32, ptr %5, align 4
  %26 = call ptr @get_column_text(ptr noundef %24, i32 noundef %25)
  %27 = load ptr, ptr %4, align 8
  %28 = load i8, ptr %6, align 1, !range !6, !noundef !7
  %29 = trunc i8 %28 to i1
  call void @csv_write_str(ptr noundef %26, i8 noundef signext 44, ptr noundef %27, i1 noundef zeroext %29)
  store i8 1, ptr %6, align 1
  br label %30

30:                                               ; preds = %20, %19
  %31 = load i32, ptr %5, align 4
  %32 = add i32 %31, 1
  store i32 %32, ptr %5, align 4
  br label %7, !llvm.loop !28

33:                                               ; preds = %7
  %34 = load i8, ptr %6, align 1, !range !6, !noundef !7
  %35 = trunc i8 %34 to i1
  br i1 %35, label %36, label %39

36:                                               ; preds = %33
  %37 = load ptr, ptr %4, align 8
  %38 = call i32 (ptr, i32, ptr, ...) @__fprintf_chk(ptr noundef %37, i32 noundef 2, ptr noundef @.str.28)
  br label %39

39:                                               ; preds = %36, %33
  call void @llvm.lifetime.end.p0(i64 1, ptr %6) #15
  call void @llvm.lifetime.end.p0(i64 4, ptr %5) #15
  ret void
}