; Function Attrs: null_pointer_is_valid sspstrong uwtable
define void @write_csv_columns(ptr noundef readonly captures(none) %0, ptr noundef %1) local_unnamed_addr #0 {
  %3 = getelementptr inbounds nuw i8, ptr %0, i64 32
  %4 = load ptr, ptr %3, align 8
  %5 = getelementptr inbounds nuw i8, ptr %4, i64 8
  %6 = load i32, ptr %5, align 8
  %7 = icmp sgt i32 %6, 0
  br i1 %7, label %.lr.ph, label %._crit_edge.thread

.lr.ph:                                           ; preds = %2, %13
  %.011 = phi i8 [ %.1, %13 ], [ 0, %2 ]
  %.0910 = phi i32 [ %14, %13 ], [ 0, %2 ]
  %8 = tail call zeroext i1 @get_column_visible(i32 noundef %.0910)
  br i1 %8, label %9, label %13

9:                                                ; preds = %.lr.ph
  %10 = load ptr, ptr %3, align 8
  %11 = tail call ptr @get_column_text(ptr noundef %10, i32 noundef %.0910)
  %12 = trunc nuw i8 %.011 to i1
  tail call fastcc void @csv_write_str(ptr noundef %11, ptr noundef %1, i1 noundef zeroext %12)
  br label %13

13:                                               ; preds = %.lr.ph, %9
  %.1 = phi i8 [ 1, %9 ], [ %.011, %.lr.ph ]
  %14 = add nuw nsw i32 %.0910, 1
  %15 = load ptr, ptr %3, align 8
  %16 = getelementptr inbounds nuw i8, ptr %15, i64 8
  %17 = load i32, ptr %16, align 8
  %18 = icmp slt i32 %14, %17
  br i1 %18, label %.lr.ph, label %._crit_edge, !llvm.loop !33

._crit_edge:                                      ; preds = %13
  %19 = trunc nuw i8 %.1 to i1
  br i1 %19, label %20, label %._crit_edge.thread

20:                                               ; preds = %._crit_edge
  %21 = tail call i32 (ptr, i32, ptr, ...) @__fprintf_chk(ptr noundef %1, i32 noundef 2, ptr noundef nonnull @.str.28)
  br label %._crit_edge.thread

._crit_edge.thread:                               ; preds = %2, %20, %._crit_edge
  ret void
}